$ 7run -m a.out
 r0   r1   r2   r3   r4   r5   sp  flags pc
start:
0000 0000 0000 0000 0000 0000 fff6 ---- 0000:f009           setd
0000 0000 0000 0000 0000 0000 fff6 ---- 0002:1180           mov sp, r0
fff6 0000 0000 0000 0000 0000 fff6 -N-- 0004:1226           mov (r0), -(sp) ;[fff6]0001 ;[fff4]0000
fff6 0000 0000 0000 0000 0000 fff4 ---- 0006:0bd0           tst (r0)+ ;[fff6]0001
fff8 0000 0000 0000 0000 0000 fff4 ---- 0008:1036 0002      mov r0, 2(sp) ;[fff6]0001
fff8 0000 0000 0000 0000 0000 fff4 -N-- 000c:09f7 0008      jsr pc, 0018 ;[0018]0977
_main:
fff8 0000 0000 0000 0000 0000 fff2 -N-- 0018:0977 00d8      jsr r5, 00f4 ;[00f4]1140
csv:
fff8 0000 0000 0000 0000 001c fff0 -N-- 00f4:1140           mov r5, r0
001c 0000 0000 0000 0000 001c fff0 ---- 00f6:1185           mov sp, r5
001c 0000 0000 0000 0000 fff0 fff0 -N-- 00f8:1126           mov r4, -(sp) ;[ffee]0000
001c 0000 0000 0000 0000 fff0 ffee Z--- 00fa:10e6           mov r3, -(sp) ;[ffec]0000
001c 0000 0000 0000 0000 fff0 ffec Z--- 00fc:10a6           mov r2, -(sp) ;[ffea]0000
001c 0000 0000 0000 0000 fff0 ffea Z--- 00fe:0be6           tst -(sp) ;[ffe8]0000
001c 0000 0000 0000 0000 fff0 ffe8 Z--- 0100:0048           jmp (r0) ;[001c]15ce
001c 0000 0000 0000 0000 fff0 ffe8 Z--- 001c:15ce 14e5      mov $14e5, (sp) ;[ffe8]0000
001c 0000 0000 0000 0000 fff0 ffe8 ---- 0020:09df 0028      jsr pc, *$0028 ;[0028]0977
_printo:
001c 0000 0000 0000 0000 fff0 ffe6 ---- 0028:0977 00c8      jsr r5, 00f4 ;[00f4]1140
csv:
001c 0000 0000 0000 0000 002c ffe4 ---- 00f4:1140           mov r5, r0
002c 0000 0000 0000 0000 002c ffe4 ---- 00f6:1185           mov sp, r5
002c 0000 0000 0000 0000 ffe4 ffe4 -N-- 00f8:1126           mov r4, -(sp) ;[ffe2]0000
002c 0000 0000 0000 0000 ffe4 ffe2 Z--- 00fa:10e6           mov r3, -(sp) ;[ffe0]0000
002c 0000 0000 0000 0000 ffe4 ffe0 Z--- 00fc:10a6           mov r2, -(sp) ;[ffde]0000
002c 0000 0000 0000 0000 ffe4 ffde Z--- 00fe:0be6           tst -(sp) ;[ffdc]0000
002c 0000 0000 0000 0000 ffe4 ffdc Z--- 0100:0048           jmp (r0) ;[002c]0be6
002c 0000 0000 0000 0000 ffe4 ffdc Z--- 002c:0be6           tst -(sp) ;[ffda]0000
002c 0000 0000 0000 0000 ffe4 ffda Z--- 002e:0bf5 0004      tst 4(r5) ;[ffe8]14e5
002c 0000 0000 0000 0000 ffe4 ffda ---- 0032:0403           bge 003a
002c 0000 0000 0000 0000 ffe4 ffda ---- 003a:15ce 0030      mov $30, (sp) ;[ffda]0000
002c 0000 0000 0000 0000 ffe4 ffda ---- 003e:09df 007a      jsr pc, *$007a ;[007a]1166
_putchar:
002c 0000 0000 0000 0000 ffe4 ffd8 ---- 007a:1166           mov r5, -(sp) ;[ffd6]0000
002c 0000 0000 0000 0000 ffe4 ffd6 -N-- 007c:1185           mov sp, r5
002c 0000 0000 0000 0000 ffd6 ffd6 -N-- 007e:1dc0 009a      mov 011c, r0 ;[011c]0000
0000 0000 0000 0000 0000 ffd6 ffd6 Z--- 0082:0204           bne 008c
0000 0000 0000 0000 0000 ffd6 ffd6 Z--- 0084:09f7 002c      jsr pc, 00b4 ;[00b4]1dc0
fl:
0000 0000 0000 0000 0000 ffd6 ffd4 Z--- 00b4:1dc0 0064      mov 011c, r0 ;[011c]0000
0000 0000 0000 0000 0000 ffd6 ffd4 Z--- 00b8:030a           beq 00ce
0000 0000 0000 0000 0000 ffd6 ffd4 Z--- 00ce:15f7 011e 0048 mov $11e, 011c ;[011c]0000
0000 0000 0000 0000 0000 ffd6 ffd4 ---- 00d4:15f7 0200 0040 mov $200, 011a ;[011a]0000
0000 0000 0000 0000 0000 ffd6 ffd4 ---- 00da:2dd7 003a 0002 cmp 0118, $2 ;[0118]0000
0000 0000 0000 0000 0000 ffd6 ffd4 --CV 00e0:8203           bhi 00e8
0000 0000 0000 0000 0000 ffd6 ffd4 --CV 00e2:15f7 0001 0032 mov $1, 011a ;[011a]0200
0000 0000 0000 0000 0000 ffd6 ffd4 --C- 00e8:0087           rts pc
0000 0000 0000 0000 0000 ffd6 ffd6 --C- 0088:1dc0 0090      mov 011c, r0 ;[011c]011e
011e 0000 0000 0000 0000 ffd6 ffd6 --C- 008c:9d50 0004      movb 4(r5), (r0)+ ;[ffda]30 ;[011e]00
011f 0000 0000 0000 0000 ffd6 ffd6 --C- 0090:0307           beq 00a0
011f 0000 0000 0000 0000 ffd6 ffd6 --C- 0092:0ab7 0086      inc 011c ;[011c]011e
011f 0000 0000 0000 0000 ffd6 ffd6 --C- 0096:0af7 0080      dec 011a ;[011a]0001
011f 0000 0000 0000 0000 ffd6 ffd6 Z-C- 009a:0602           bgt 00a0
011f 0000 0000 0000 0000 ffd6 ffd6 Z-C- 009c:09f7 0014      jsr pc, 00b4 ;[00b4]1dc0
fl:
011f 0000 0000 0000 0000 ffd6 ffd4 Z-C- 00b4:1dc0 0064      mov 011c, r0 ;[011c]011f
011f 0000 0000 0000 0000 ffd6 ffd4 --C- 00b8:030a           beq 00ce
011f 0000 0000 0000 0000 ffd6 ffd4 --C- 00ba:e5c0 011e      sub $11e, r0
0001 0000 0000 0000 0000 ffd6 ffd4 ---- 00be:1037 0052      mov r0, 0114 ;[0114]0000
0001 0000 0000 0000 0000 ffd6 ffd4 ---- 00c2:1dc0 0052      mov 0118, r0 ;[0118]0000
0000 0000 0000 0000 0000 ffd6 ffd4 Z--- 00c6:0201           bne 00ca
0000 0000 0000 0000 0000 ffd6 ffd4 Z--- 00c8:0a80           inc r0
0001 0000 0000 0000 0000 ffd6 ffd4 ---- 00ca:8900           sys 0
<write(1, 0x011e, 1)0 => 1>
0001 0000 0000 0000 0000 ffd6 ffd4 ---- 00ce:15f7 011e 0048 mov $11e, 011c ;[011c]011f
0001 0000 0000 0000 0000 ffd6 ffd4 ---- 00d4:15f7 0200 0040 mov $200, 011a ;[011a]0000
0001 0000 0000 0000 0000 ffd6 ffd4 ---- 00da:2dd7 003a 0002 cmp 0118, $2 ;[0118]0000
0001 0000 0000 0000 0000 ffd6 ffd4 --CV 00e0:8203           bhi 00e8
0001 0000 0000 0000 0000 ffd6 ffd4 --CV 00e2:15f7 0001 0032 mov $1, 011a ;[011a]0200
0001 0000 0000 0000 0000 ffd6 ffd4 --C- 00e8:0087           rts pc
0001 0000 0000 0000 0000 ffd6 ffd6 --C- 00a0:1d40 0004      mov 4(r5), r0 ;[ffda]0030
0030 0000 0000 0000 0000 ffd6 ffd6 --C- 00a4:1585           mov (sp)+, r5 ;[ffd6]ffe4
0030 0000 0000 0000 0000 ffe4 ffd8 -NC- 00a6:0087           rts pc
0030 0000 0000 0000 0000 ffe4 ffda -NC- 0042:0a35 fff8      clr -8(r5) ;[ffdc]0000
0030 0000 0000 0000 0000 ffe4 ffda Z--- 0046:25f5 0005 fff8 cmp $5, -8(r5) ;[ffdc]0000
0030 0000 0000 0000 0000 ffe4 ffda ---- 004c:0714           ble 0076
0030 0000 0000 0000 0000 ffe4 ffda ---- 004e:1d40 0004      mov 4(r5), r0 ;[ffe8]14e5
14e5 0000 0000 0000 0000 ffe4 ffda ---- 0052:7417 fff4      ash $fff4, r0
0001 0000 0000 0000 0000 ffe4 ffda ---V 0056:100e           mov r0, (sp) ;[ffda]0030
0001 0000 0000 0000 0000 ffe4 ffda ---- 0058:45ce fff8      bic $fff8, (sp) ;[ffda]0001
0001 0000 0000 0000 0000 ffe4 ffda ---- 005c:65ce 0030      add $30, (sp) ;[ffda]0001
0001 0000 0000 0000 0000 ffe4 ffda ---- 0060:09df 007a      jsr pc, *$007a ;[007a]1166
_putchar:
0001 0000 0000 0000 0000 ffe4 ffd8 ---- 007a:1166           mov r5, -(sp) ;[ffd6]ffe4
0001 0000 0000 0000 0000 ffe4 ffd6 -N-- 007c:1185           mov sp, r5
0001 0000 0000 0000 0000 ffd6 ffd6 -N-- 007e:1dc0 009a      mov 011c, r0 ;[011c]011e
011e 0000 0000 0000 0000 ffd6 ffd6 ---- 0082:0204           bne 008c
011e 0000 0000 0000 0000 ffd6 ffd6 ---- 008c:9d50 0004      movb 4(r5), (r0)+ ;[ffda]31 ;[011e]30
011f 0000 0000 0000 0000 ffd6 ffd6 ---- 0090:0307           beq 00a0
011f 0000 0000 0000 0000 ffd6 ffd6 ---- 0092:0ab7 0086      inc 011c ;[011c]011e
011f 0000 0000 0000 0000 ffd6 ffd6 ---- 0096:0af7 0080      dec 011a ;[011a]0001
011f 0000 0000 0000 0000 ffd6 ffd6 Z--- 009a:0602           bgt 00a0
011f 0000 0000 0000 0000 ffd6 ffd6 Z--- 009c:09f7 0014      jsr pc, 00b4 ;[00b4]1dc0
fl:
011f 0000 0000 0000 0000 ffd6 ffd4 Z--- 00b4:1dc0 0064      mov 011c, r0 ;[011c]011f
011f 0000 0000 0000 0000 ffd6 ffd4 ---- 00b8:030a           beq 00ce
011f 0000 0000 0000 0000 ffd6 ffd4 ---- 00ba:e5c0 011e      sub $11e, r0
0001 0000 0000 0000 0000 ffd6 ffd4 ---- 00be:1037 0052      mov r0, 0114 ;[0114]0001
0001 0000 0000 0000 0000 ffd6 ffd4 ---- 00c2:1dc0 0052      mov 0118, r0 ;[0118]0000
0000 0000 0000 0000 0000 ffd6 ffd4 Z--- 00c6:0201           bne 00ca
0000 0000 0000 0000 0000 ffd6 ffd4 Z--- 00c8:0a80           inc r0
0001 0000 0000 0000 0000 ffd6 ffd4 ---- 00ca:8900           sys 0
<write(1, 0x011e, 1)1 => 1>
0001 0000 0000 0000 0000 ffd6 ffd4 ---- 00ce:15f7 011e 0048 mov $11e, 011c ;[011c]011f
0001 0000 0000 0000 0000 ffd6 ffd4 ---- 00d4:15f7 0200 0040 mov $200, 011a ;[011a]0000
0001 0000 0000 0000 0000 ffd6 ffd4 ---- 00da:2dd7 003a 0002 cmp 0118, $2 ;[0118]0000
0001 0000 0000 0000 0000 ffd6 ffd4 --CV 00e0:8203           bhi 00e8
0001 0000 0000 0000 0000 ffd6 ffd4 --CV 00e2:15f7 0001 0032 mov $1, 011a ;[011a]0200
0001 0000 0000 0000 0000 ffd6 ffd4 --C- 00e8:0087           rts pc
0001 0000 0000 0000 0000 ffd6 ffd6 --C- 00a0:1d40 0004      mov 4(r5), r0 ;[ffda]0031
0031 0000 0000 0000 0000 ffd6 ffd6 --C- 00a4:1585           mov (sp)+, r5 ;[ffd6]ffe4
0031 0000 0000 0000 0000 ffe4 ffd8 -NC- 00a6:0087           rts pc
0031 0000 0000 0000 0000 ffe4 ffda -NC- 0064:1d40 0004      mov 4(r5), r0 ;[ffe8]14e5
14e5 0000 0000 0000 0000 ffe4 ffda --C- 0068:7417 0003      ash $3, r0
a728 0000 0000 0000 0000 ffe4 ffda ---V 006c:1035 0004      mov r0, 4(r5) ;[ffe8]14e5
a728 0000 0000 0000 0000 ffe4 ffda -N-- 0070:0ab5 fff8      inc -8(r5) ;[ffdc]0000
a728 0000 0000 0000 0000 ffe4 ffda ---- 0074:01e8           br 0046
a728 0000 0000 0000 0000 ffe4 ffda ---- 0046:25f5 0005 fff8 cmp $5, -8(r5) ;[ffdc]0001
a728 0000 0000 0000 0000 ffe4 ffda ---- 004c:0714           ble 0076
a728 0000 0000 0000 0000 ffe4 ffda ---- 004e:1d40 0004      mov 4(r5), r0 ;[ffe8]a728
a728 0000 0000 0000 0000 ffe4 ffda -N-- 0052:7417 fff4      ash $fff4, r0
fffa 0000 0000 0000 0000 ffe4 ffda -NCV 0056:100e           mov r0, (sp) ;[ffda]0031
fffa 0000 0000 0000 0000 ffe4 ffda -NC- 0058:45ce fff8      bic $fff8, (sp) ;[ffda]fffa
fffa 0000 0000 0000 0000 ffe4 ffda --C- 005c:65ce 0030      add $30, (sp) ;[ffda]0002
fffa 0000 0000 0000 0000 ffe4 ffda ---- 0060:09df 007a      jsr pc, *$007a ;[007a]1166
_putchar:
fffa 0000 0000 0000 0000 ffe4 ffd8 ---- 007a:1166           mov r5, -(sp) ;[ffd6]ffe4
fffa 0000 0000 0000 0000 ffe4 ffd6 -N-- 007c:1185           mov sp, r5
fffa 0000 0000 0000 0000 ffd6 ffd6 -N-- 007e:1dc0 009a      mov 011c, r0 ;[011c]011e
011e 0000 0000 0000 0000 ffd6 ffd6 ---- 0082:0204           bne 008c
011e 0000 0000 0000 0000 ffd6 ffd6 ---- 008c:9d50 0004      movb 4(r5), (r0)+ ;[ffda]32 ;[011e]31
011f 0000 0000 0000 0000 ffd6 ffd6 ---- 0090:0307           beq 00a0
011f 0000 0000 0000 0000 ffd6 ffd6 ---- 0092:0ab7 0086      inc 011c ;[011c]011e
011f 0000 0000 0000 0000 ffd6 ffd6 ---- 0096:0af7 0080      dec 011a ;[011a]0001
011f 0000 0000 0000 0000 ffd6 ffd6 Z--- 009a:0602           bgt 00a0
011f 0000 0000 0000 0000 ffd6 ffd6 Z--- 009c:09f7 0014      jsr pc, 00b4 ;[00b4]1dc0
fl:
011f 0000 0000 0000 0000 ffd6 ffd4 Z--- 00b4:1dc0 0064      mov 011c, r0 ;[011c]011f
011f 0000 0000 0000 0000 ffd6 ffd4 ---- 00b8:030a           beq 00ce
011f 0000 0000 0000 0000 ffd6 ffd4 ---- 00ba:e5c0 011e      sub $11e, r0
0001 0000 0000 0000 0000 ffd6 ffd4 ---- 00be:1037 0052      mov r0, 0114 ;[0114]0001
0001 0000 0000 0000 0000 ffd6 ffd4 ---- 00c2:1dc0 0052      mov 0118, r0 ;[0118]0000
0000 0000 0000 0000 0000 ffd6 ffd4 Z--- 00c6:0201           bne 00ca
0000 0000 0000 0000 0000 ffd6 ffd4 Z--- 00c8:0a80           inc r0
0001 0000 0000 0000 0000 ffd6 ffd4 ---- 00ca:8900           sys 0
<write(1, 0x011e, 1)2 => 1>
0001 0000 0000 0000 0000 ffd6 ffd4 ---- 00ce:15f7 011e 0048 mov $11e, 011c ;[011c]011f
0001 0000 0000 0000 0000 ffd6 ffd4 ---- 00d4:15f7 0200 0040 mov $200, 011a ;[011a]0000
0001 0000 0000 0000 0000 ffd6 ffd4 ---- 00da:2dd7 003a 0002 cmp 0118, $2 ;[0118]0000
0001 0000 0000 0000 0000 ffd6 ffd4 --CV 00e0:8203           bhi 00e8
0001 0000 0000 0000 0000 ffd6 ffd4 --CV 00e2:15f7 0001 0032 mov $1, 011a ;[011a]0200
0001 0000 0000 0000 0000 ffd6 ffd4 --C- 00e8:0087           rts pc
0001 0000 0000 0000 0000 ffd6 ffd6 --C- 00a0:1d40 0004      mov 4(r5), r0 ;[ffda]0032
0032 0000 0000 0000 0000 ffd6 ffd6 --C- 00a4:1585           mov (sp)+, r5 ;[ffd6]ffe4
0032 0000 0000 0000 0000 ffe4 ffd8 -NC- 00a6:0087           rts pc
0032 0000 0000 0000 0000 ffe4 ffda -NC- 0064:1d40 0004      mov 4(r5), r0 ;[ffe8]a728
a728 0000 0000 0000 0000 ffe4 ffda -NC- 0068:7417 0003      ash $3, r0
3940 0000 0000 0000 0000 ffe4 ffda -N-V 006c:1035 0004      mov r0, 4(r5) ;[ffe8]a728
3940 0000 0000 0000 0000 ffe4 ffda ---- 0070:0ab5 fff8      inc -8(r5) ;[ffdc]0001
3940 0000 0000 0000 0000 ffe4 ffda ---- 0074:01e8           br 0046
3940 0000 0000 0000 0000 ffe4 ffda ---- 0046:25f5 0005 fff8 cmp $5, -8(r5) ;[ffdc]0002
3940 0000 0000 0000 0000 ffe4 ffda ---- 004c:0714           ble 0076
3940 0000 0000 0000 0000 ffe4 ffda ---- 004e:1d40 0004      mov 4(r5), r0 ;[ffe8]3940
3940 0000 0000 0000 0000 ffe4 ffda ---- 0052:7417 fff4      ash $fff4, r0
0003 0000 0000 0000 0000 ffe4 ffda ---V 0056:100e           mov r0, (sp) ;[ffda]0032
0003 0000 0000 0000 0000 ffe4 ffda ---- 0058:45ce fff8      bic $fff8, (sp) ;[ffda]0003
0003 0000 0000 0000 0000 ffe4 ffda ---- 005c:65ce 0030      add $30, (sp) ;[ffda]0003
0003 0000 0000 0000 0000 ffe4 ffda ---- 0060:09df 007a      jsr pc, *$007a ;[007a]1166
_putchar:
0003 0000 0000 0000 0000 ffe4 ffd8 ---- 007a:1166           mov r5, -(sp) ;[ffd6]ffe4
0003 0000 0000 0000 0000 ffe4 ffd6 -N-- 007c:1185           mov sp, r5
0003 0000 0000 0000 0000 ffd6 ffd6 -N-- 007e:1dc0 009a      mov 011c, r0 ;[011c]011e
011e 0000 0000 0000 0000 ffd6 ffd6 ---- 0082:0204           bne 008c
011e 0000 0000 0000 0000 ffd6 ffd6 ---- 008c:9d50 0004      movb 4(r5), (r0)+ ;[ffda]33 ;[011e]32
011f 0000 0000 0000 0000 ffd6 ffd6 ---- 0090:0307           beq 00a0
011f 0000 0000 0000 0000 ffd6 ffd6 ---- 0092:0ab7 0086      inc 011c ;[011c]011e
011f 0000 0000 0000 0000 ffd6 ffd6 ---- 0096:0af7 0080      dec 011a ;[011a]0001
011f 0000 0000 0000 0000 ffd6 ffd6 Z--- 009a:0602           bgt 00a0
011f 0000 0000 0000 0000 ffd6 ffd6 Z--- 009c:09f7 0014      jsr pc, 00b4 ;[00b4]1dc0
fl:
011f 0000 0000 0000 0000 ffd6 ffd4 Z--- 00b4:1dc0 0064      mov 011c, r0 ;[011c]011f
011f 0000 0000 0000 0000 ffd6 ffd4 ---- 00b8:030a           beq 00ce
011f 0000 0000 0000 0000 ffd6 ffd4 ---- 00ba:e5c0 011e      sub $11e, r0
0001 0000 0000 0000 0000 ffd6 ffd4 ---- 00be:1037 0052      mov r0, 0114 ;[0114]0001
0001 0000 0000 0000 0000 ffd6 ffd4 ---- 00c2:1dc0 0052      mov 0118, r0 ;[0118]0000
0000 0000 0000 0000 0000 ffd6 ffd4 Z--- 00c6:0201           bne 00ca
0000 0000 0000 0000 0000 ffd6 ffd4 Z--- 00c8:0a80           inc r0
0001 0000 0000 0000 0000 ffd6 ffd4 ---- 00ca:8900           sys 0
<write(1, 0x011e, 1)3 => 1>
0001 0000 0000 0000 0000 ffd6 ffd4 ---- 00ce:15f7 011e 0048 mov $11e, 011c ;[011c]011f
0001 0000 0000 0000 0000 ffd6 ffd4 ---- 00d4:15f7 0200 0040 mov $200, 011a ;[011a]0000
0001 0000 0000 0000 0000 ffd6 ffd4 ---- 00da:2dd7 003a 0002 cmp 0118, $2 ;[0118]0000
0001 0000 0000 0000 0000 ffd6 ffd4 --CV 00e0:8203           bhi 00e8
0001 0000 0000 0000 0000 ffd6 ffd4 --CV 00e2:15f7 0001 0032 mov $1, 011a ;[011a]0200
0001 0000 0000 0000 0000 ffd6 ffd4 --C- 00e8:0087           rts pc
0001 0000 0000 0000 0000 ffd6 ffd6 --C- 00a0:1d40 0004      mov 4(r5), r0 ;[ffda]0033
0033 0000 0000 0000 0000 ffd6 ffd6 --C- 00a4:1585           mov (sp)+, r5 ;[ffd6]ffe4
0033 0000 0000 0000 0000 ffe4 ffd8 -NC- 00a6:0087           rts pc
0033 0000 0000 0000 0000 ffe4 ffda -NC- 0064:1d40 0004      mov 4(r5), r0 ;[ffe8]3940
3940 0000 0000 0000 0000 ffe4 ffda --C- 0068:7417 0003      ash $3, r0
ca00 0000 0000 0000 0000 ffe4 ffda ---V 006c:1035 0004      mov r0, 4(r5) ;[ffe8]3940
ca00 0000 0000 0000 0000 ffe4 ffda -N-- 0070:0ab5 fff8      inc -8(r5) ;[ffdc]0002
ca00 0000 0000 0000 0000 ffe4 ffda ---- 0074:01e8           br 0046
ca00 0000 0000 0000 0000 ffe4 ffda ---- 0046:25f5 0005 fff8 cmp $5, -8(r5) ;[ffdc]0003
ca00 0000 0000 0000 0000 ffe4 ffda ---- 004c:0714           ble 0076
ca00 0000 0000 0000 0000 ffe4 ffda ---- 004e:1d40 0004      mov 4(r5), r0 ;[ffe8]ca00
ca00 0000 0000 0000 0000 ffe4 ffda -N-- 0052:7417 fff4      ash $fff4, r0
fffc 0000 0000 0000 0000 ffe4 ffda -NCV 0056:100e           mov r0, (sp) ;[ffda]0033
fffc 0000 0000 0000 0000 ffe4 ffda -NC- 0058:45ce fff8      bic $fff8, (sp) ;[ffda]fffc
fffc 0000 0000 0000 0000 ffe4 ffda --C- 005c:65ce 0030      add $30, (sp) ;[ffda]0004
fffc 0000 0000 0000 0000 ffe4 ffda ---- 0060:09df 007a      jsr pc, *$007a ;[007a]1166
_putchar:
fffc 0000 0000 0000 0000 ffe4 ffd8 ---- 007a:1166           mov r5, -(sp) ;[ffd6]ffe4
fffc 0000 0000 0000 0000 ffe4 ffd6 -N-- 007c:1185           mov sp, r5
fffc 0000 0000 0000 0000 ffd6 ffd6 -N-- 007e:1dc0 009a      mov 011c, r0 ;[011c]011e
011e 0000 0000 0000 0000 ffd6 ffd6 ---- 0082:0204           bne 008c
011e 0000 0000 0000 0000 ffd6 ffd6 ---- 008c:9d50 0004      movb 4(r5), (r0)+ ;[ffda]34 ;[011e]33
011f 0000 0000 0000 0000 ffd6 ffd6 ---- 0090:0307           beq 00a0
011f 0000 0000 0000 0000 ffd6 ffd6 ---- 0092:0ab7 0086      inc 011c ;[011c]011e
011f 0000 0000 0000 0000 ffd6 ffd6 ---- 0096:0af7 0080      dec 011a ;[011a]0001
011f 0000 0000 0000 0000 ffd6 ffd6 Z--- 009a:0602           bgt 00a0
011f 0000 0000 0000 0000 ffd6 ffd6 Z--- 009c:09f7 0014      jsr pc, 00b4 ;[00b4]1dc0
fl:
011f 0000 0000 0000 0000 ffd6 ffd4 Z--- 00b4:1dc0 0064      mov 011c, r0 ;[011c]011f
011f 0000 0000 0000 0000 ffd6 ffd4 ---- 00b8:030a           beq 00ce
011f 0000 0000 0000 0000 ffd6 ffd4 ---- 00ba:e5c0 011e      sub $11e, r0
0001 0000 0000 0000 0000 ffd6 ffd4 ---- 00be:1037 0052      mov r0, 0114 ;[0114]0001
0001 0000 0000 0000 0000 ffd6 ffd4 ---- 00c2:1dc0 0052      mov 0118, r0 ;[0118]0000
0000 0000 0000 0000 0000 ffd6 ffd4 Z--- 00c6:0201           bne 00ca
0000 0000 0000 0000 0000 ffd6 ffd4 Z--- 00c8:0a80           inc r0
0001 0000 0000 0000 0000 ffd6 ffd4 ---- 00ca:8900           sys 0
<write(1, 0x011e, 1)4 => 1>
0001 0000 0000 0000 0000 ffd6 ffd4 ---- 00ce:15f7 011e 0048 mov $11e, 011c ;[011c]011f
0001 0000 0000 0000 0000 ffd6 ffd4 ---- 00d4:15f7 0200 0040 mov $200, 011a ;[011a]0000
0001 0000 0000 0000 0000 ffd6 ffd4 ---- 00da:2dd7 003a 0002 cmp 0118, $2 ;[0118]0000
0001 0000 0000 0000 0000 ffd6 ffd4 --CV 00e0:8203           bhi 00e8
0001 0000 0000 0000 0000 ffd6 ffd4 --CV 00e2:15f7 0001 0032 mov $1, 011a ;[011a]0200
0001 0000 0000 0000 0000 ffd6 ffd4 --C- 00e8:0087           rts pc
0001 0000 0000 0000 0000 ffd6 ffd6 --C- 00a0:1d40 0004      mov 4(r5), r0 ;[ffda]0034
0034 0000 0000 0000 0000 ffd6 ffd6 --C- 00a4:1585           mov (sp)+, r5 ;[ffd6]ffe4
0034 0000 0000 0000 0000 ffe4 ffd8 -NC- 00a6:0087           rts pc
0034 0000 0000 0000 0000 ffe4 ffda -NC- 0064:1d40 0004      mov 4(r5), r0 ;[ffe8]ca00
ca00 0000 0000 0000 0000 ffe4 ffda -NC- 0068:7417 0003      ash $3, r0
5000 0000 0000 0000 0000 ffe4 ffda -N-V 006c:1035 0004      mov r0, 4(r5) ;[ffe8]ca00
5000 0000 0000 0000 0000 ffe4 ffda ---- 0070:0ab5 fff8      inc -8(r5) ;[ffdc]0003
5000 0000 0000 0000 0000 ffe4 ffda ---- 0074:01e8           br 0046
5000 0000 0000 0000 0000 ffe4 ffda ---- 0046:25f5 0005 fff8 cmp $5, -8(r5) ;[ffdc]0004
5000 0000 0000 0000 0000 ffe4 ffda ---- 004c:0714           ble 0076
5000 0000 0000 0000 0000 ffe4 ffda ---- 004e:1d40 0004      mov 4(r5), r0 ;[ffe8]5000
5000 0000 0000 0000 0000 ffe4 ffda ---- 0052:7417 fff4      ash $fff4, r0
0005 0000 0000 0000 0000 ffe4 ffda ---V 0056:100e           mov r0, (sp) ;[ffda]0034
0005 0000 0000 0000 0000 ffe4 ffda ---- 0058:45ce fff8      bic $fff8, (sp) ;[ffda]0005
0005 0000 0000 0000 0000 ffe4 ffda ---- 005c:65ce 0030      add $30, (sp) ;[ffda]0005
0005 0000 0000 0000 0000 ffe4 ffda ---- 0060:09df 007a      jsr pc, *$007a ;[007a]1166
_putchar:
0005 0000 0000 0000 0000 ffe4 ffd8 ---- 007a:1166           mov r5, -(sp) ;[ffd6]ffe4
0005 0000 0000 0000 0000 ffe4 ffd6 -N-- 007c:1185           mov sp, r5
0005 0000 0000 0000 0000 ffd6 ffd6 -N-- 007e:1dc0 009a      mov 011c, r0 ;[011c]011e
011e 0000 0000 0000 0000 ffd6 ffd6 ---- 0082:0204           bne 008c
011e 0000 0000 0000 0000 ffd6 ffd6 ---- 008c:9d50 0004      movb 4(r5), (r0)+ ;[ffda]35 ;[011e]34
011f 0000 0000 0000 0000 ffd6 ffd6 ---- 0090:0307           beq 00a0
011f 0000 0000 0000 0000 ffd6 ffd6 ---- 0092:0ab7 0086      inc 011c ;[011c]011e
011f 0000 0000 0000 0000 ffd6 ffd6 ---- 0096:0af7 0080      dec 011a ;[011a]0001
011f 0000 0000 0000 0000 ffd6 ffd6 Z--- 009a:0602           bgt 00a0
011f 0000 0000 0000 0000 ffd6 ffd6 Z--- 009c:09f7 0014      jsr pc, 00b4 ;[00b4]1dc0
fl:
011f 0000 0000 0000 0000 ffd6 ffd4 Z--- 00b4:1dc0 0064      mov 011c, r0 ;[011c]011f
011f 0000 0000 0000 0000 ffd6 ffd4 ---- 00b8:030a           beq 00ce
011f 0000 0000 0000 0000 ffd6 ffd4 ---- 00ba:e5c0 011e      sub $11e, r0
0001 0000 0000 0000 0000 ffd6 ffd4 ---- 00be:1037 0052      mov r0, 0114 ;[0114]0001
0001 0000 0000 0000 0000 ffd6 ffd4 ---- 00c2:1dc0 0052      mov 0118, r0 ;[0118]0000
0000 0000 0000 0000 0000 ffd6 ffd4 Z--- 00c6:0201           bne 00ca
0000 0000 0000 0000 0000 ffd6 ffd4 Z--- 00c8:0a80           inc r0
0001 0000 0000 0000 0000 ffd6 ffd4 ---- 00ca:8900           sys 0
<write(1, 0x011e, 1)5 => 1>
0001 0000 0000 0000 0000 ffd6 ffd4 ---- 00ce:15f7 011e 0048 mov $11e, 011c ;[011c]011f
0001 0000 0000 0000 0000 ffd6 ffd4 ---- 00d4:15f7 0200 0040 mov $200, 011a ;[011a]0000
0001 0000 0000 0000 0000 ffd6 ffd4 ---- 00da:2dd7 003a 0002 cmp 0118, $2 ;[0118]0000
0001 0000 0000 0000 0000 ffd6 ffd4 --CV 00e0:8203           bhi 00e8
0001 0000 0000 0000 0000 ffd6 ffd4 --CV 00e2:15f7 0001 0032 mov $1, 011a ;[011a]0200
0001 0000 0000 0000 0000 ffd6 ffd4 --C- 00e8:0087           rts pc
0001 0000 0000 0000 0000 ffd6 ffd6 --C- 00a0:1d40 0004      mov 4(r5), r0 ;[ffda]0035
0035 0000 0000 0000 0000 ffd6 ffd6 --C- 00a4:1585           mov (sp)+, r5 ;[ffd6]ffe4
0035 0000 0000 0000 0000 ffe4 ffd8 -NC- 00a6:0087           rts pc
0035 0000 0000 0000 0000 ffe4 ffda -NC- 0064:1d40 0004      mov 4(r5), r0 ;[ffe8]5000
5000 0000 0000 0000 0000 ffe4 ffda --C- 0068:7417 0003      ash $3, r0
8000 0000 0000 0000 0000 ffe4 ffda ---V 006c:1035 0004      mov r0, 4(r5) ;[ffe8]5000
8000 0000 0000 0000 0000 ffe4 ffda -N-- 0070:0ab5 fff8      inc -8(r5) ;[ffdc]0004
8000 0000 0000 0000 0000 ffe4 ffda ---- 0074:01e8           br 0046
8000 0000 0000 0000 0000 ffe4 ffda ---- 0046:25f5 0005 fff8 cmp $5, -8(r5) ;[ffdc]0005
8000 0000 0000 0000 0000 ffe4 ffda Z--- 004c:0714           ble 0076
8000 0000 0000 0000 0000 ffe4 ffda Z--- 0076:0077 0088      jmp 0102 ;[0102]1141
cret:
8000 0000 0000 0000 0000 ffe4 ffda Z--- 0102:1141           mov r5, r1
8000 ffe4 0000 0000 0000 ffe4 ffda -N-- 0104:1844           mov -(r1), r4 ;[ffe2]0000
8000 ffe2 0000 0000 0000 ffe4 ffda Z--- 0106:1843           mov -(r1), r3 ;[ffe0]0000
8000 ffe0 0000 0000 0000 ffe4 ffda Z--- 0108:1842           mov -(r1), r2 ;[ffde]0000
8000 ffde 0000 0000 0000 ffe4 ffda Z--- 010a:1146           mov r5, sp
8000 ffde 0000 0000 0000 ffe4 ffe4 -N-- 010c:1585           mov (sp)+, r5 ;[ffe4]fff0
8000 ffde 0000 0000 0000 fff0 ffe6 -N-- 010e:0087           rts pc
8000 ffde 0000 0000 0000 fff0 ffe8 -N-- 0024:0077 00da      jmp 0102 ;[0102]1141
cret:
8000 ffde 0000 0000 0000 fff0 ffe8 -N-- 0102:1141           mov r5, r1
8000 fff0 0000 0000 0000 fff0 ffe8 -N-- 0104:1844           mov -(r1), r4 ;[ffee]0000
8000 ffee 0000 0000 0000 fff0 ffe8 Z--- 0106:1843           mov -(r1), r3 ;[ffec]0000
8000 ffec 0000 0000 0000 fff0 ffe8 Z--- 0108:1842           mov -(r1), r2 ;[ffea]0000
8000 ffea 0000 0000 0000 fff0 ffe8 Z--- 010a:1146           mov r5, sp
8000 ffea 0000 0000 0000 fff0 fff0 -N-- 010c:1585           mov (sp)+, r5 ;[fff0]0000
8000 ffea 0000 0000 0000 0000 fff2 Z--- 010e:0087           rts pc
8000 ffea 0000 0000 0000 0000 fff4 Z--- 0010:100e           mov r0, (sp) ;[fff4]0001
8000 ffea 0000 0000 0000 0000 fff4 -N-- 0012:09df 00ea      jsr pc, *$00ea ;[00ea]1166
_exit:
8000 ffea 0000 0000 0000 0000 fff2 -N-- 00ea:1166           mov r5, -(sp) ;[fff0]0000
8000 ffea 0000 0000 0000 0000 fff0 Z--- 00ec:1185           mov sp, r5
8000 ffea 0000 0000 0000 fff0 fff0 -N-- 00ee:1d40 0004      mov 4(r5), r0 ;[fff4]8000
8000 ffea 0000 0000 0000 fff0 fff0 -N-- 00f2:8901           sys 1
<exit(-32768)>
